target datalayout = "e-m:e-p270:32:32-p271:32:32-p272:64:64-i64:64-i128:128-f80:128-n8:16:32:64-S128"
target triple = "x86_64-pc-linux-gnu"

@.str.3 = private unnamed_addr constant [2 x i8] c"\0A\00", align 1
@.str.4 = private unnamed_addr constant [30 x i8] c"    rename old_name new_name\0A\00", align 1
@.str.5 = private unnamed_addr constant [77 x i8] c"Rename the specified object. Note that selection patterns are not supported\0A\00", align 1
@.str.6 = private unnamed_addr constant [18 x i8] c"by this command.\0A\00", align 1
@.str.7 = private unnamed_addr constant [38 x i8] c"    rename -output old_name new_name\0A\00", align 1
@.str.8 = private unnamed_addr constant [79 x i8] c"Like above, but also make the wire an output. This will fail if the object is\0A\00", align 1
@.str.9 = private unnamed_addr constant [13 x i8] c"not a wire.\0A\00", align 1
@.str.10 = private unnamed_addr constant [29 x i8] c"    rename -src [selection]\0A\00", align 1
@.str.11 = private unnamed_addr constant [78 x i8] c"Assign names auto-generated from the src attribute to all selected wires and\0A\00", align 1
@.str.12 = private unnamed_addr constant [27 x i8] c"cells with private names.\0A\00", align 1
@.str.13 = private unnamed_addr constant [49 x i8] c"    rename -wire [selection] [-suffix <suffix>]\0A\00", align 1
@.str.14 = private unnamed_addr constant [75 x i8] c"Assign auto-generated names based on the wires they drive to all selected\0A\00", align 1
@.str.15 = private unnamed_addr constant [71 x i8] c"cells with private names. Ignores cells driving privatly named wires.\0A\00", align 1
@.str.16 = private unnamed_addr constant [76 x i8] c"By default, the cell is named after the wire with the cell type as suffix.\0A\00", align 1
@.str.17 = private unnamed_addr constant [79 x i8] c"The -suffix option can be used to set the suffix to the given string instead.\0A\00", align 1
@.str.18 = private unnamed_addr constant [56 x i8] c"    rename -enumerate [-pattern <pattern>] [selection]\0A\00", align 1
@.str.19 = private unnamed_addr constant [80 x i8] c"Assign short auto-generated names to all selected wires and cells with private\0A\00", align 1
@.str.20 = private unnamed_addr constant [78 x i8] c"names. The -pattern option can be used to set the pattern for the new names.\0A\00", align 1
@.str.21 = private unnamed_addr constant [80 x i8] c"The character %% in the pattern is replaced with a integer number. The default\0A\00", align 1
@.str.22 = private unnamed_addr constant [20 x i8] c"pattern is '_%%_'.\0A\00", align 1
@.str.23 = private unnamed_addr constant [21 x i8] c"    rename -witness\0A\00", align 1
@.str.24 = private unnamed_addr constant [77 x i8] c"Assigns auto-generated names to all $any*/$all* output wires and containing\0A\00", align 1
@.str.25 = private unnamed_addr constant [72 x i8] c"cells that do not have a public name. This ensures that, during formal\0A\00", align 1
@.str.26 = private unnamed_addr constant [74 x i8] c"verification, a solver-found trace can be fully specified using a public\0A\00", align 1
@.str.27 = private unnamed_addr constant [21 x i8] c"hierarchical names.\0A\00", align 1
@.str.28 = private unnamed_addr constant [30 x i8] c"    rename -hide [selection]\0A\00", align 1
@.str.29 = private unnamed_addr constant [79 x i8] c"Assign private names (the ones with $-prefix) to all selected wires and cells\0A\00", align 1
@.str.30 = private unnamed_addr constant [53 x i8] c"with public names. This ignores all selected ports.\0A\00", align 1
@.str.31 = private unnamed_addr constant [26 x i8] c"    rename -top new_name\0A\00", align 1
@.str.32 = private unnamed_addr constant [20 x i8] c"Rename top module.\0A\00", align 1
@.str.33 = private unnamed_addr constant [54 x i8] c"    rename -scramble-name [-seed <seed>] [selection]\0A\00", align 1
@.str.34 = private unnamed_addr constant [82 x i8] c"Assign randomly-generated names to all selected wires and cells. The seed option\0A\00", align 1
@.str.35 = private unnamed_addr constant [81 x i8] c"can be used to change the random number generator seed from the default, but it\0A\00", align 1
@.str.36 = private unnamed_addr constant [19 x i8] c"must be non-zero.\0A\00", align 1

; Function Attrs: mustprogress uwtable
define internal void @_ZN12_GLOBAL__N_110RenamePass4helpEv(ptr noundef nonnull align 8 dereferenceable(104) %0) unnamed_addr #4 align 2 {
  %2 = alloca ptr, align 8
  store ptr %0, ptr %2, align 8
  call void (ptr, ...) @_ZN5Yosys3logEPKcz(ptr noundef @.str.3)
  call void (ptr, ...) @_ZN5Yosys3logEPKcz(ptr noundef @.str.4)
  call void (ptr, ...) @_ZN5Yosys3logEPKcz(ptr noundef @.str.3)
  call void (ptr, ...) @_ZN5Yosys3logEPKcz(ptr noundef @.str.5)
  call void (ptr, ...) @_ZN5Yosys3logEPKcz(ptr noundef @.str.6)
  call void (ptr, ...) @_ZN5Yosys3logEPKcz(ptr noundef @.str.3)
  call void (ptr, ...) @_ZN5Yosys3logEPKcz(ptr noundef @.str.3)
  call void (ptr, ...) @_ZN5Yosys3logEPKcz(ptr noundef @.str.3)
  call void (ptr, ...) @_ZN5Yosys3logEPKcz(ptr noundef @.str.7)
  call void (ptr, ...) @_ZN5Yosys3logEPKcz(ptr noundef @.str.3)
  call void (ptr, ...) @_ZN5Yosys3logEPKcz(ptr noundef @.str.8)
  call void (ptr, ...) @_ZN5Yosys3logEPKcz(ptr noundef @.str.9)
  call void (ptr, ...) @_ZN5Yosys3logEPKcz(ptr noundef @.str.3)
  call void (ptr, ...) @_ZN5Yosys3logEPKcz(ptr noundef @.str.3)
  call void (ptr, ...) @_ZN5Yosys3logEPKcz(ptr noundef @.str.10)
  call void (ptr, ...) @_ZN5Yosys3logEPKcz(ptr noundef @.str.3)
  call void (ptr, ...) @_ZN5Yosys3logEPKcz(ptr noundef @.str.11)
  call void (ptr, ...) @_ZN5Yosys3logEPKcz(ptr noundef @.str.12)
  call void (ptr, ...) @_ZN5Yosys3logEPKcz(ptr noundef @.str.3)
  call void (ptr, ...) @_ZN5Yosys3logEPKcz(ptr noundef @.str.3)
  call void (ptr, ...) @_ZN5Yosys3logEPKcz(ptr noundef @.str.13)
  call void (ptr, ...) @_ZN5Yosys3logEPKcz(ptr noundef @.str.3)
  call void (ptr, ...) @_ZN5Yosys3logEPKcz(ptr noundef @.str.14)
  call void (ptr, ...) @_ZN5Yosys3logEPKcz(ptr noundef @.str.15)
  call void (ptr, ...) @_ZN5Yosys3logEPKcz(ptr noundef @.str.16)
  call void (ptr, ...) @_ZN5Yosys3logEPKcz(ptr noundef @.str.17)
  call void (ptr, ...) @_ZN5Yosys3logEPKcz(ptr noundef @.str.3)
  call void (ptr, ...) @_ZN5Yosys3logEPKcz(ptr noundef @.str.3)
  call void (ptr, ...) @_ZN5Yosys3logEPKcz(ptr noundef @.str.18)
  call void (ptr, ...) @_ZN5Yosys3logEPKcz(ptr noundef @.str.3)
  call void (ptr, ...) @_ZN5Yosys3logEPKcz(ptr noundef @.str.19)
  call void (ptr, ...) @_ZN5Yosys3logEPKcz(ptr noundef @.str.20)
  call void (ptr, ...) @_ZN5Yosys3logEPKcz(ptr noundef @.str.21)
  call void (ptr, ...) @_ZN5Yosys3logEPKcz(ptr noundef @.str.22)
  call void (ptr, ...) @_ZN5Yosys3logEPKcz(ptr noundef @.str.3)
  call void (ptr, ...) @_ZN5Yosys3logEPKcz(ptr noundef @.str.3)
  call void (ptr, ...) @_ZN5Yosys3logEPKcz(ptr noundef @.str.23)
  call void (ptr, ...) @_ZN5Yosys3logEPKcz(ptr noundef @.str.3)
  call void (ptr, ...) @_ZN5Yosys3logEPKcz(ptr noundef @.str.24)
  call void (ptr, ...) @_ZN5Yosys3logEPKcz(ptr noundef @.str.25)
  call void (ptr, ...) @_ZN5Yosys3logEPKcz(ptr noundef @.str.26)
  call void (ptr, ...) @_ZN5Yosys3logEPKcz(ptr noundef @.str.27)
  call void (ptr, ...) @_ZN5Yosys3logEPKcz(ptr noundef @.str.3)
  call void (ptr, ...) @_ZN5Yosys3logEPKcz(ptr noundef @.str.3)
  call void (ptr, ...) @_ZN5Yosys3logEPKcz(ptr noundef @.str.28)
  call void (ptr, ...) @_ZN5Yosys3logEPKcz(ptr noundef @.str.3)
  call void (ptr, ...) @_ZN5Yosys3logEPKcz(ptr noundef @.str.29)
  call void (ptr, ...) @_ZN5Yosys3logEPKcz(ptr noundef @.str.30)
  call void (ptr, ...) @_ZN5Yosys3logEPKcz(ptr noundef @.str.3)
  call void (ptr, ...) @_ZN5Yosys3logEPKcz(ptr noundef @.str.3)
  call void (ptr, ...) @_ZN5Yosys3logEPKcz(ptr noundef @.str.31)
  call void (ptr, ...) @_ZN5Yosys3logEPKcz(ptr noundef @.str.3)
  call void (ptr, ...) @_ZN5Yosys3logEPKcz(ptr noundef @.str.32)
  call void (ptr, ...) @_ZN5Yosys3logEPKcz(ptr noundef @.str.3)
  call void (ptr, ...) @_ZN5Yosys3logEPKcz(ptr noundef @.str.3)
  call void (ptr, ...) @_ZN5Yosys3logEPKcz(ptr noundef @.str.33)
  call void (ptr, ...) @_ZN5Yosys3logEPKcz(ptr noundef @.str.3)
  call void (ptr, ...) @_ZN5Yosys3logEPKcz(ptr noundef @.str.34)
  call void (ptr, ...) @_ZN5Yosys3logEPKcz(ptr noundef @.str.35)
  call void (ptr, ...) @_ZN5Yosys3logEPKcz(ptr noundef @.str.36)
  call void (ptr, ...) @_ZN5Yosys3logEPKcz(ptr noundef @.str.3)
  ret void
}